; Function Attrs: mustprogress uwtable
define void @_ZN13RichParameterC2ERKS_(ptr noundef nonnull align 8 dereferenceable(56) %0, ptr nocapture noundef nonnull readonly align 8 dereferenceable(56) %1) unnamed_addr #1 align 2 personality ptr @__gxx_personality_v0 {
  store ptr getelementptr inbounds ({ [8 x ptr] }, ptr @_ZTV13RichParameter, i64 0, i32 0, i64 2), ptr %0, align 8
  %3 = getelementptr inbounds i8, ptr %0, i64 8
  %4 = getelementptr inbounds i8, ptr %1, i64 8
  %5 = load ptr, ptr %4, align 8
  store ptr %5, ptr %3, align 8
  %6 = load atomic i32, ptr %5 monotonic, align 4
  %7 = add i32 %6, -1
  %or.cond.not.i.i = icmp ult i32 %7, -2
  br i1 %or.cond.not.i.i, label %8, label %_ZN7QStringC2ERKS_.exit

8:                                                ; preds = %2
  %9 = atomicrmw add ptr %5, i32 1 seq_cst, align 4
  br label %_ZN7QStringC2ERKS_.exit

_ZN7QStringC2ERKS_.exit:                          ; preds = %2, %8
  %10 = getelementptr inbounds i8, ptr %1, i64 16
  %11 = load ptr, ptr %10, align 8
  %12 = load ptr, ptr %11, align 8
  %13 = getelementptr inbounds i8, ptr %12, i64 160
  %14 = load ptr, ptr %13, align 8
  %15 = invoke noundef ptr %14(ptr noundef nonnull align 8 dereferenceable(8) %11)
          to label %16 unwind label %47

16:                                               ; preds = %_ZN7QStringC2ERKS_.exit
  %17 = getelementptr inbounds i8, ptr %0, i64 16
  store ptr %15, ptr %17, align 8
  %18 = getelementptr inbounds i8, ptr %0, i64 24
  %19 = getelementptr inbounds i8, ptr %1, i64 24
  %20 = load ptr, ptr %19, align 8
  store ptr %20, ptr %18, align 8
  %21 = load atomic i32, ptr %20 monotonic, align 4
  %22 = add i32 %21, -1
  %or.cond.not.i.i9 = icmp ult i32 %22, -2
  br i1 %or.cond.not.i.i9, label %23, label %_ZN7QStringC2ERKS_.exit10

23:                                               ; preds = %16
  %24 = atomicrmw add ptr %20, i32 1 seq_cst, align 4
  br label %_ZN7QStringC2ERKS_.exit10

_ZN7QStringC2ERKS_.exit10:                        ; preds = %16, %23
  %25 = getelementptr inbounds i8, ptr %0, i64 32
  %26 = getelementptr inbounds i8, ptr %1, i64 32
  %27 = load ptr, ptr %26, align 8
  store ptr %27, ptr %25, align 8
  %28 = load atomic i32, ptr %27 monotonic, align 4
  %29 = add i32 %28, -1
  %or.cond.not.i.i11 = icmp ult i32 %29, -2
  br i1 %or.cond.not.i.i11, label %30, label %_ZN7QStringC2ERKS_.exit12

30:                                               ; preds = %_ZN7QStringC2ERKS_.exit10
  %31 = atomicrmw add ptr %27, i32 1 seq_cst, align 4
  br label %_ZN7QStringC2ERKS_.exit12

_ZN7QStringC2ERKS_.exit12:                        ; preds = %_ZN7QStringC2ERKS_.exit10, %30
  %32 = getelementptr inbounds i8, ptr %0, i64 40
  %33 = getelementptr inbounds i8, ptr %1, i64 40
  %34 = load i8, ptr %33, align 8
  %35 = and i8 %34, 1
  store i8 %35, ptr %32, align 8
  %36 = getelementptr inbounds i8, ptr %0, i64 41
  %37 = getelementptr inbounds i8, ptr %1, i64 41
  %38 = load i8, ptr %37, align 1
  %39 = and i8 %38, 1
  store i8 %39, ptr %36, align 1
  %40 = getelementptr inbounds i8, ptr %0, i64 48
  %41 = getelementptr inbounds i8, ptr %1, i64 48
  %42 = load ptr, ptr %41, align 8
  store ptr %42, ptr %40, align 8
  %43 = load atomic i32, ptr %42 monotonic, align 4
  %44 = add i32 %43, -1
  %or.cond.not.i.i13 = icmp ult i32 %44, -2
  br i1 %or.cond.not.i.i13, label %45, label %_ZN7QStringC2ERKS_.exit14

45:                                               ; preds = %_ZN7QStringC2ERKS_.exit12
  %46 = atomicrmw add ptr %42, i32 1 seq_cst, align 4
  br label %_ZN7QStringC2ERKS_.exit14

_ZN7QStringC2ERKS_.exit14:                        ; preds = %_ZN7QStringC2ERKS_.exit12, %45
  ret void

47:                                               ; preds = %_ZN7QStringC2ERKS_.exit
  %48 = landingpad { ptr, i32 }
          cleanup
  tail call void @_ZN7QStringD2Ev(ptr noundef nonnull align 8 dereferenceable(8) %3) #21
  resume { ptr, i32 } %48
}